; Function Attrs: nounwind uwtable
define ptr @l_Lean_Elab_FixedParams_Info_setCallerParam___lambda__1(ptr noundef %0, ptr noundef %1, ptr noundef %2, ptr noundef %3, ptr noundef %4, ptr readnone captures(none) %5) local_unnamed_addr #1 {
  %7 = getelementptr inbounds nuw i8, ptr %4, i64 8
  %8 = load ptr, ptr %7, align 8, !tbaa !9
  %9 = ptrtoint ptr %8 to i64
  %10 = and i64 %9, 1
  %.not = icmp eq i64 %10, 0
  br i1 %.not, label %11, label %lean_inc.exit

11:                                               ; preds = %6
  %.val.i = load i32, ptr %8, align 4, !tbaa !4
  %12 = icmp sgt i32 %.val.i, 0
  br i1 %12, label %13, label %15, !prof !11

13:                                               ; preds = %11
  %14 = add nuw i32 %.val.i, 1
  store i32 %14, ptr %8, align 4, !tbaa !4
  br label %19

15:                                               ; preds = %11
  %.not.i23 = icmp eq i32 %.val.i, 0
  br i1 %.not.i23, label %.thread26, label %17

.thread26:                                        ; preds = %15
  %16 = getelementptr i8, ptr %8, i64 8
  %.val2425 = load i64, ptr %16, align 8, !tbaa !12
  br label %lean_dec.exit20

17:                                               ; preds = %15
  tail call void @lean_inc_ref_cold(ptr noundef nonnull %8) #5
  %.pr = load i32, ptr %8, align 4, !tbaa !4
  br label %19

lean_inc.exit:                                    ; preds = %6
  %18 = getelementptr i8, ptr %8, i64 8
  %.val = load i64, ptr %18, align 8, !tbaa !12
  br label %lean_dec.exit20

19:                                               ; preds = %17, %13
  %20 = phi i32 [ %.pr, %17 ], [ %14, %13 ]
  %21 = getelementptr i8, ptr %8, i64 8
  %.val24 = load i64, ptr %21, align 8, !tbaa !12
  %22 = icmp sgt i32 %20, 1
  br i1 %22, label %23, label %25, !prof !15

23:                                               ; preds = %19
  %24 = add nsw i32 %20, -1
  store i32 %24, ptr %8, align 4, !tbaa !4
  br label %lean_dec.exit20

25:                                               ; preds = %19
  %.not.i = icmp eq i32 %20, 0
  br i1 %.not.i, label %lean_dec.exit20, label %26

26:                                               ; preds = %25
  tail call void @lean_dec_ref_cold(ptr noundef nonnull %8) #5
  br label %lean_dec.exit20

lean_dec.exit20:                                  ; preds = %26, %25, %23, %.thread26, %lean_inc.exit
  %.in.in.in = phi i64 [ %.val, %lean_inc.exit ], [ %.val24, %23 ], [ %.val24, %25 ], [ %.val24, %26 ], [ %.val2425, %.thread26 ]
  tail call void @lean_inc_heartbeat() #5
  %27 = tail call noalias ptr @mi_malloc_small(i64 noundef 32) #5
  %28 = icmp eq ptr %27, null
  br i1 %28, label %29, label %lean_alloc_ctor.exit

29:                                               ; preds = %lean_dec.exit20
  tail call void @lean_internal_panic_out_of_memory() #6
  unreachable

lean_alloc_ctor.exit:                             ; preds = %lean_dec.exit20
  %.in.in = shl i64 %.in.in.in, 1
  %.in = or disjoint i64 %.in.in, 1
  %30 = inttoptr i64 %.in to ptr
  %31 = getelementptr inbounds nuw i8, ptr %27, i64 4
  store i32 1, ptr %27, align 4, !tbaa !4
  store i32 196640, ptr %31, align 4
  %32 = getelementptr inbounds nuw i8, ptr %27, i64 8
  store ptr inttoptr (i64 1 to ptr), ptr %32, align 8, !tbaa !9
  %33 = getelementptr inbounds nuw i8, ptr %27, i64 16
  store ptr %30, ptr %33, align 8, !tbaa !9
  %34 = getelementptr inbounds nuw i8, ptr %27, i64 24
  store ptr inttoptr (i64 3 to ptr), ptr %34, align 8, !tbaa !9
  %35 = tail call ptr @l_Std_Range_forIn_x27_loop___at_Lean_Elab_FixedParams_Info_setCallerParam___spec__2(ptr noundef %0, ptr noundef %1, ptr noundef %2, ptr noundef %3, ptr nonnull poison, ptr noundef nonnull %27, ptr noundef nonnull %4, ptr noundef nonnull inttoptr (i64 1 to ptr), ptr nonnull poison, ptr nonnull poison)
  %36 = ptrtoint ptr %27 to i64
  %37 = and i64 %36, 1
  %.not28 = icmp eq i64 %37, 0
  br i1 %.not28, label %38, label %lean_dec.exit

38:                                               ; preds = %lean_alloc_ctor.exit
  %39 = load i32, ptr %27, align 4, !tbaa !4
  %40 = icmp sgt i32 %39, 1
  br i1 %40, label %41, label %43, !prof !11

41:                                               ; preds = %38
  %42 = add nsw i32 %39, -1
  store i32 %42, ptr %27, align 4, !tbaa !4
  br label %lean_dec.exit

43:                                               ; preds = %38
  %.not.i21 = icmp eq i32 %39, 0
  br i1 %.not.i21, label %lean_dec.exit, label %44

44:                                               ; preds = %43
  tail call void @lean_dec_ref_cold(ptr noundef nonnull %27) #5
  br label %lean_dec.exit

lean_dec.exit:                                    ; preds = %44, %43, %41, %lean_alloc_ctor.exit
  ret ptr %35
}